; Function Attrs: null_pointer_is_valid sspstrong uwtable
define internal noundef i32 @dissect_context_ver(ptr noundef %0, ptr noundef %1, i32 noundef %2) #0 {
  %4 = tail call ptr @proto_tree_add_subtree(ptr noundef %0, ptr noundef %1, i32 noundef %2, i32 noundef 4, i32 noundef 20, ptr noundef null, ptr noundef nonnull @.str.146)
  %5 = load i32, ptr @hf_vrt_context_ver_year, align 4
  %6 = tail call ptr @proto_tree_add_item(ptr noundef %4, i32 noundef %5, ptr noundef %1, i32 noundef %2, i32 noundef 2, i32 noundef 0)
  %7 = load i32, ptr @hf_vrt_context_ver_day, align 4
  %8 = tail call ptr @proto_tree_add_item(ptr noundef %4, i32 noundef %7, ptr noundef %1, i32 noundef %2, i32 noundef 2, i32 noundef 0)
  %9 = load i32, ptr @hf_vrt_context_ver_rev, align 4
  %10 = add i32 %2, 2
  %11 = tail call ptr @proto_tree_add_item(ptr noundef %4, i32 noundef %9, ptr noundef %1, i32 noundef %10, i32 noundef 2, i32 noundef 0)
  %12 = load i32, ptr @hf_vrt_context_ver_user, align 4
  %13 = tail call ptr @proto_tree_add_item(ptr noundef %4, i32 noundef %12, ptr noundef %1, i32 noundef %10, i32 noundef 2, i32 noundef 0)
  ret i32 0
}